target datalayout = "e-m:e-p270:32:32-p271:32:32-p272:64:64-i64:64-i128:128-f80:128-n8:16:32:64-S128"
target triple = "x86_64-pc-linux-gnu"

%struct.ma_context = type { %struct.ma_backend_callbacks, i32, ptr, %struct.ma_log, i32, i64, ptr, %struct.ma_allocation_callbacks, %union.pthread_mutex_t, %union.pthread_mutex_t, i32, i32, i32, ptr, %union.anon.36, %union.anon.41 }
%struct.ma_backend_callbacks = type { ptr, ptr, ptr, ptr, ptr, ptr, ptr, ptr, ptr, ptr, ptr, ptr, ptr }
%struct.ma_log = type { [4 x %struct.ma_log_callback], i32, %struct.ma_allocation_callbacks, %union.pthread_mutex_t }
%struct.ma_log_callback = type { ptr, ptr }
%struct.ma_allocation_callbacks = type { ptr, ptr, ptr, ptr }
%union.anon.36 = type { %struct.anon.37 }
%struct.anon.37 = type { ptr, ptr, ptr, ptr, ptr, ptr, ptr, ptr, ptr, ptr, ptr, ptr, ptr, ptr, ptr, ptr, ptr, ptr, ptr, ptr, ptr, ptr, ptr, ptr, ptr, ptr, ptr, ptr, ptr, ptr, ptr, ptr, ptr, ptr, ptr, ptr, ptr, ptr, ptr, ptr, ptr, ptr, ptr, ptr, ptr, ptr, ptr, ptr, ptr, ptr, ptr, ptr, ptr, ptr, ptr, ptr, ptr, ptr, ptr, ptr, ptr, ptr, ptr, ptr, ptr, ptr, ptr, %union.pthread_mutex_t, i32 }
%union.anon.41 = type { %struct.anon.42 }
%struct.anon.42 = type { i32 }
%union.pthread_mutex_t = type { %struct.__pthread_mutex_s }
%struct.__pthread_mutex_s = type { i32, i32, i32, i32, i32, i16, i16, %struct.__pthread_internal_list }
%struct.__pthread_internal_list = type { ptr, ptr }
%struct.anon.38 = type { ptr, ptr, ptr, ptr, ptr, ptr, ptr, ptr, ptr, ptr, ptr, ptr, ptr, ptr, ptr, ptr, ptr, ptr, ptr, ptr, ptr, ptr, ptr, ptr, ptr, ptr, ptr, ptr, ptr, ptr, ptr, ptr, ptr, ptr, ptr, ptr, ptr, ptr, ptr, ptr, ptr, ptr, ptr, ptr, ptr, ptr, ptr, ptr, ptr, ptr, ptr, ptr, ptr, ptr, ptr, ptr, ptr, ptr, ptr, ptr, ptr, ptr, ptr, ptr, ptr, ptr }
%struct.ma_pa_sink_info = type { ptr, i32, ptr, %struct.ma_pa_sample_spec, %struct.ma_pa_channel_map, i32, %struct.ma_pa_cvolume, i32, i32, ptr, i64, ptr, i32, ptr, i64, i32, i32, i32, i32, i32, ptr, ptr, i8, ptr }
%struct.ma_pa_sample_spec = type { i32, i32, i8 }
%struct.ma_pa_channel_map = type { i8, [32 x i32] }
%struct.ma_pa_cvolume = type { i8, [32 x i32] }
%struct.ma_pa_source_info = type { ptr, i32, ptr, %struct.ma_pa_sample_spec, %struct.ma_pa_channel_map, i32, %struct.ma_pa_cvolume, i32, i32, ptr, i64, ptr, i32, ptr, i64, i32, i32, i32, i32, i32, ptr, ptr, i8, ptr }

; Function Attrs: nounwind uwtable
define internal i32 @ma_result_from_pulse(i32 noundef %0) #0 {
  %2 = alloca i32, align 4
  %3 = alloca i32, align 4
  store i32 %0, ptr %3, align 4
  %4 = load i32, ptr %3, align 4
  %5 = icmp slt i32 %4, 0
  br i1 %5, label %6, label %7

6:                                                ; preds = %1
  store i32 -1, ptr %2, align 4
  br label %14

7:                                                ; preds = %1
  %8 = load i32, ptr %3, align 4
  switch i32 %8, label %13 [
    i32 0, label %9
    i32 1, label %10
    i32 2, label %11
    i32 5, label %12
  ]

9:                                                ; preds = %7
  store i32 0, ptr %2, align 4
  br label %14

10:                                               ; preds = %7
  store i32 -6, ptr %2, align 4
  br label %14

11:                                               ; preds = %7
  store i32 -2, ptr %2, align 4
  br label %14

12:                                               ; preds = %7
  store i32 -204, ptr %2, align 4
  br label %14

13:                                               ; preds = %7
  store i32 -1, ptr %2, align 4
  br label %14

14:                                               ; preds = %13, %12, %11, %10, %9, %6
  %15 = load i32, ptr %2, align 4
  ret i32 %15
}

; Function Attrs: nounwind uwtable
define internal i32 @ma_wait_for_operation__pulse(ptr noundef %0, ptr noundef %1, ptr noundef %2) #0 {
  %4 = alloca i32, align 4
  %5 = alloca ptr, align 8
  %6 = alloca ptr, align 8
  %7 = alloca ptr, align 8
  %8 = alloca i32, align 4
  %9 = alloca i32, align 4
  %10 = alloca i32, align 4
  store ptr %0, ptr %5, align 8
  store ptr %1, ptr %6, align 8
  store ptr %2, ptr %7, align 8
  call void @llvm.lifetime.start.p0(i64 4, ptr %8) #21
  call void @llvm.lifetime.start.p0(i64 4, ptr %9) #21
  br label %11

11:                                               ; preds = %33, %3
  %12 = load ptr, ptr %5, align 8
  %13 = getelementptr inbounds nuw %struct.ma_context, ptr %12, i32 0, i32 14
  %14 = getelementptr inbounds nuw %struct.anon.38, ptr %13, i32 0, i32 31
  %15 = load ptr, ptr %14, align 8
  %16 = load ptr, ptr %7, align 8
  %17 = call i32 %15(ptr noundef %16)
  store i32 %17, ptr %9, align 4
  %18 = load i32, ptr %9, align 4
  %19 = icmp ne i32 %18, 0
  br i1 %19, label %20, label %21

20:                                               ; preds = %11
  br label %34

21:                                               ; preds = %11
  %22 = load ptr, ptr %5, align 8
  %23 = getelementptr inbounds nuw %struct.ma_context, ptr %22, i32 0, i32 14
  %24 = getelementptr inbounds nuw %struct.anon.38, ptr %23, i32 0, i32 5
  %25 = load ptr, ptr %24, align 8
  %26 = load ptr, ptr %6, align 8
  %27 = call i32 %25(ptr noundef %26, i32 noundef 1, ptr noundef null)
  store i32 %27, ptr %8, align 4
  %28 = load i32, ptr %8, align 4
  %29 = icmp slt i32 %28, 0
  br i1 %29, label %30, label %33

30:                                               ; preds = %21
  %31 = load i32, ptr %8, align 4
  %32 = call i32 @ma_result_from_pulse(i32 noundef %31)
  store i32 %32, ptr %4, align 4
  store i32 1, ptr %10, align 4
  br label %35

33:                                               ; preds = %21
  br label %11

34:                                               ; preds = %20
  store i32 0, ptr %4, align 4
  store i32 1, ptr %10, align 4
  br label %35

35:                                               ; preds = %34, %30
  call void @llvm.lifetime.end.p0(i64 4, ptr %9) #21
  call void @llvm.lifetime.end.p0(i64 4, ptr %8) #21
  %36 = load i32, ptr %4, align 4
  ret i32 %36
}

; Function Attrs: nounwind uwtable
define internal i32 @ma_wait_for_operation_and_unref__pulse(ptr noundef %0, ptr noundef %1, ptr noundef %2) #0 {
  %4 = alloca i32, align 4
  %5 = alloca ptr, align 8
  %6 = alloca ptr, align 8
  %7 = alloca ptr, align 8
  %8 = alloca i32, align 4
  %9 = alloca i32, align 4
  store ptr %0, ptr %5, align 8
  store ptr %1, ptr %6, align 8
  store ptr %2, ptr %7, align 8
  call void @llvm.lifetime.start.p0(i64 4, ptr %8) #21
  %10 = load ptr, ptr %7, align 8
  %11 = icmp eq ptr %10, null
  br i1 %11, label %12, label %13

12:                                               ; preds = %3
  store i32 -2, ptr %4, align 4
  store i32 1, ptr %9, align 4
  br label %24

13:                                               ; preds = %3
  %14 = load ptr, ptr %5, align 8
  %15 = load ptr, ptr %6, align 8
  %16 = load ptr, ptr %7, align 8
  %17 = call i32 @ma_wait_for_operation__pulse(ptr noundef %14, ptr noundef %15, ptr noundef %16)
  store i32 %17, ptr %8, align 4
  %18 = load ptr, ptr %5, align 8
  %19 = getelementptr inbounds nuw %struct.ma_context, ptr %18, i32 0, i32 14
  %20 = getelementptr inbounds nuw %struct.anon.38, ptr %19, i32 0, i32 30
  %21 = load ptr, ptr %20, align 8
  %22 = load ptr, ptr %7, align 8
  call void %21(ptr noundef %22)
  %23 = load i32, ptr %8, align 4
  store i32 %23, ptr %4, align 4
  store i32 1, ptr %9, align 4
  br label %24

24:                                               ; preds = %13, %12
  call void @llvm.lifetime.end.p0(i64 4, ptr %8) #21
  %25 = load i32, ptr %4, align 4
  ret i32 %25
}

; Function Attrs: nounwind uwtable
define internal i32 @ma_context_get_source_info__pulse(ptr noundef %0, ptr noundef %1, ptr noundef %2) #0 {
  %4 = alloca i32, align 4
  %5 = alloca ptr, align 8
  %6 = alloca ptr, align 8
  %7 = alloca ptr, align 8
  %8 = alloca ptr, align 8
  %9 = alloca i32, align 4
  store ptr %0, ptr %5, align 8
  store ptr %1, ptr %6, align 8
  store ptr %2, ptr %7, align 8
  call void @llvm.lifetime.start.p0(i64 8, ptr %8) #21
  %10 = load ptr, ptr %5, align 8
  %11 = getelementptr inbounds nuw %struct.ma_context, ptr %10, i32 0, i32 14
  %12 = getelementptr inbounds nuw %struct.anon.38, ptr %11, i32 0, i32 29
  %13 = load ptr, ptr %12, align 8
  %14 = load ptr, ptr %5, align 8
  %15 = getelementptr inbounds nuw %struct.ma_context, ptr %14, i32 0, i32 14
  %16 = getelementptr inbounds nuw %struct.anon.38, ptr %15, i32 0, i32 63
  %17 = load ptr, ptr %16, align 8
  %18 = load ptr, ptr %6, align 8
  %19 = load ptr, ptr %7, align 8
  %20 = call ptr %13(ptr noundef %17, ptr noundef %18, ptr noundef @ma_device_source_info_callback, ptr noundef %19)
  store ptr %20, ptr %8, align 8
  %21 = load ptr, ptr %8, align 8
  %22 = icmp eq ptr %21, null
  br i1 %22, label %23, label %24

23:                                               ; preds = %3
  store i32 -1, ptr %4, align 4
  store i32 1, ptr %9, align 4
  br label %32

24:                                               ; preds = %3
  %25 = load ptr, ptr %5, align 8
  %26 = load ptr, ptr %5, align 8
  %27 = getelementptr inbounds nuw %struct.ma_context, ptr %26, i32 0, i32 14
  %28 = getelementptr inbounds nuw %struct.anon.38, ptr %27, i32 0, i32 62
  %29 = load ptr, ptr %28, align 8
  %30 = load ptr, ptr %8, align 8
  %31 = call i32 @ma_wait_for_operation_and_unref__pulse(ptr noundef %25, ptr noundef %29, ptr noundef %30)
  store i32 %31, ptr %4, align 4
  store i32 1, ptr %9, align 4
  br label %32

32:                                               ; preds = %24, %23
  call void @llvm.lifetime.end.p0(i64 8, ptr %8) #21
  %33 = load i32, ptr %4, align 4
  ret i32 %33
}

; Function Attrs: nounwind uwtable
define internal i32 @ma_context_get_sink_info__pulse(ptr noundef %0, ptr noundef %1, ptr noundef %2) #0 {
  %4 = alloca i32, align 4
  %5 = alloca ptr, align 8
  %6 = alloca ptr, align 8
  %7 = alloca ptr, align 8
  %8 = alloca ptr, align 8
  %9 = alloca i32, align 4
  store ptr %0, ptr %5, align 8
  store ptr %1, ptr %6, align 8
  store ptr %2, ptr %7, align 8
  call void @llvm.lifetime.start.p0(i64 8, ptr %8) #21
  %10 = load ptr, ptr %5, align 8
  %11 = getelementptr inbounds nuw %struct.ma_context, ptr %10, i32 0, i32 14
  %12 = getelementptr inbounds nuw %struct.anon.38, ptr %11, i32 0, i32 28
  %13 = load ptr, ptr %12, align 8
  %14 = load ptr, ptr %5, align 8
  %15 = getelementptr inbounds nuw %struct.ma_context, ptr %14, i32 0, i32 14
  %16 = getelementptr inbounds nuw %struct.anon.38, ptr %15, i32 0, i32 63
  %17 = load ptr, ptr %16, align 8
  %18 = load ptr, ptr %6, align 8
  %19 = load ptr, ptr %7, align 8
  %20 = call ptr %13(ptr noundef %17, ptr noundef %18, ptr noundef @ma_device_sink_info_callback, ptr noundef %19)
  store ptr %20, ptr %8, align 8
  %21 = load ptr, ptr %8, align 8
  %22 = icmp eq ptr %21, null
  br i1 %22, label %23, label %24

23:                                               ; preds = %3
  store i32 -1, ptr %4, align 4
  store i32 1, ptr %9, align 4
  br label %32

24:                                               ; preds = %3
  %25 = load ptr, ptr %5, align 8
  %26 = load ptr, ptr %5, align 8
  %27 = getelementptr inbounds nuw %struct.ma_context, ptr %26, i32 0, i32 14
  %28 = getelementptr inbounds nuw %struct.anon.38, ptr %27, i32 0, i32 62
  %29 = load ptr, ptr %28, align 8
  %30 = load ptr, ptr %8, align 8
  %31 = call i32 @ma_wait_for_operation_and_unref__pulse(ptr noundef %25, ptr noundef %29, ptr noundef %30)
  store i32 %31, ptr %4, align 4
  store i32 1, ptr %9, align 4
  br label %32

32:                                               ; preds = %24, %23
  call void @llvm.lifetime.end.p0(i64 8, ptr %8) #21
  %33 = load i32, ptr %4, align 4
  ret i32 %33
}

; Function Attrs: nounwind uwtable
define internal i32 @ma_context_get_default_device_index__pulse(ptr noundef %0, i32 noundef %1, ptr noundef %2) #0 {
  %4 = alloca i32, align 4
  %5 = alloca ptr, align 8
  %6 = alloca i32, align 4
  %7 = alloca ptr, align 8
  %8 = alloca i32, align 4
  %9 = alloca %struct.ma_pa_sink_info, align 8
  %10 = alloca i32, align 4
  %11 = alloca %struct.ma_pa_source_info, align 8
  store ptr %0, ptr %5, align 8
  store i32 %1, ptr %6, align 4
  store ptr %2, ptr %7, align 8
  call void @llvm.lifetime.start.p0(i64 4, ptr %8) #21
  %12 = load ptr, ptr %7, align 8
  %13 = icmp ne ptr %12, null
  br i1 %13, label %14, label %16

14:                                               ; preds = %3
  %15 = load ptr, ptr %7, align 8
  store i32 -1, ptr %15, align 4
  br label %16

16:                                               ; preds = %14, %3
  %17 = load i32, ptr %6, align 4
  %18 = icmp eq i32 %17, 1
  br i1 %18, label %19, label %37

19:                                               ; preds = %16
  call void @llvm.lifetime.start.p0(i64 416, ptr %9) #21
  %20 = load ptr, ptr %5, align 8
  %21 = call i32 @ma_context_get_sink_info__pulse(ptr noundef %20, ptr noundef null, ptr noundef %9)
  store i32 %21, ptr %8, align 4
  %22 = load i32, ptr %8, align 4
  %23 = icmp ne i32 %22, 0
  br i1 %23, label %24, label %26

24:                                               ; preds = %19
  %25 = load i32, ptr %8, align 4
  store i32 %25, ptr %4, align 4
  store i32 1, ptr %10, align 4
  br label %34

26:                                               ; preds = %19
  %27 = load ptr, ptr %7, align 8
  %28 = icmp ne ptr %27, null
  br i1 %28, label %29, label %33

29:                                               ; preds = %26
  %30 = getelementptr inbounds nuw %struct.ma_pa_sink_info, ptr %9, i32 0, i32 1
  %31 = load i32, ptr %30, align 8
  %32 = load ptr, ptr %7, align 8
  store i32 %31, ptr %32, align 4
  br label %33

33:                                               ; preds = %29, %26
  store i32 0, ptr %10, align 4
  br label %34

34:                                               ; preds = %33, %24
  call void @llvm.lifetime.end.p0(i64 416, ptr %9) #21
  %35 = load i32, ptr %10, align 4
  switch i32 %35, label %59 [
    i32 0, label %36
  ]

36:                                               ; preds = %34
  br label %37

37:                                               ; preds = %36, %16
  %38 = load i32, ptr %6, align 4
  %39 = icmp eq i32 %38, 2
  br i1 %39, label %40, label %58

40:                                               ; preds = %37
  call void @llvm.lifetime.start.p0(i64 416, ptr %11) #21
  %41 = load ptr, ptr %5, align 8
  %42 = call i32 @ma_context_get_source_info__pulse(ptr noundef %41, ptr noundef null, ptr noundef %11)
  store i32 %42, ptr %8, align 4
  %43 = load i32, ptr %8, align 4
  %44 = icmp ne i32 %43, 0
  br i1 %44, label %45, label %47

45:                                               ; preds = %40
  %46 = load i32, ptr %8, align 4
  store i32 %46, ptr %4, align 4
  store i32 1, ptr %10, align 4
  br label %55

47:                                               ; preds = %40
  %48 = load ptr, ptr %7, align 8
  %49 = icmp ne ptr %48, null
  br i1 %49, label %50, label %54

50:                                               ; preds = %47
  %51 = getelementptr inbounds nuw %struct.ma_pa_source_info, ptr %11, i32 0, i32 1
  %52 = load i32, ptr %51, align 8
  %53 = load ptr, ptr %7, align 8
  store i32 %52, ptr %53, align 4
  br label %54

54:                                               ; preds = %50, %47
  store i32 0, ptr %10, align 4
  br label %55

55:                                               ; preds = %54, %45
  call void @llvm.lifetime.end.p0(i64 416, ptr %11) #21
  %56 = load i32, ptr %10, align 4
  switch i32 %56, label %59 [
    i32 0, label %57
  ]

57:                                               ; preds = %55
  br label %58

58:                                               ; preds = %57, %37
  store i32 0, ptr %4, align 4
  store i32 1, ptr %10, align 4
  br label %59

59:                                               ; preds = %58, %55, %34
  call void @llvm.lifetime.end.p0(i64 4, ptr %8) #21
  %60 = load i32, ptr %4, align 4
  ret i32 %60
}