; Function Attrs: nounwind uwtable
define internal fastcc range(i32 -1, 1) i32 @ma_context_get_default_device_index__pulse(ptr noundef readonly captures(none) %0, i32 noundef %1, ptr noundef nonnull writeonly captures(none) initializes((0, 4)) %2) unnamed_addr #7 {
  %4 = alloca %struct.ma_pa_sink_info, align 8
  %5 = alloca %struct.ma_pa_source_info, align 8
  store i32 -1, ptr %2, align 4
  switch i32 %1, label %58 [
    i32 1, label %6
    i32 2, label %32
  ]

6:                                                ; preds = %3
  call void @llvm.lifetime.start.p0(i64 416, ptr nonnull %4) #72
  %7 = getelementptr inbounds nuw i8, ptr %0, i64 648
  %8 = load ptr, ptr %7, align 8
  %9 = getelementptr inbounds nuw i8, ptr %0, i64 928
  %10 = load ptr, ptr %9, align 8
  %11 = call ptr %8(ptr noundef %10, ptr noundef null, ptr noundef nonnull @ma_device_sink_info_callback, ptr noundef nonnull %4) #72
  %12 = icmp eq ptr %11, null
  br i1 %12, label %.critedge, label %13

13:                                               ; preds = %6
  %14 = getelementptr inbounds nuw i8, ptr %0, i64 920
  %15 = load ptr, ptr %14, align 8
  %16 = getelementptr inbounds nuw i8, ptr %0, i64 464
  %17 = getelementptr inbounds nuw i8, ptr %0, i64 672
  br label %18

18:                                               ; preds = %21, %13
  %19 = load ptr, ptr %17, align 8
  %20 = call i32 %19(ptr noundef nonnull %11) #72
  %.not.i.i.i = icmp eq i32 %20, 0
  br i1 %.not.i.i.i, label %21, label %27

21:                                               ; preds = %18
  %22 = load ptr, ptr %16, align 8
  %23 = call i32 %22(ptr noundef %15, i32 noundef 1, ptr noundef null) #72
  %24 = icmp slt i32 %23, 0
  br i1 %24, label %ma_context_get_sink_info__pulse.exit, label %18

ma_context_get_sink_info__pulse.exit:             ; preds = %21
  %25 = getelementptr inbounds nuw i8, ptr %0, i64 664
  %26 = load ptr, ptr %25, align 8
  call void %26(ptr noundef nonnull %11) #72
  br label %.critedge

27:                                               ; preds = %18
  %28 = getelementptr inbounds nuw i8, ptr %0, i64 664
  %29 = load ptr, ptr %28, align 8
  call void %29(ptr noundef nonnull %11) #72
  %30 = getelementptr inbounds nuw i8, ptr %4, i64 8
  %31 = load i32, ptr %30, align 8
  store i32 %31, ptr %2, align 4
  call void @llvm.lifetime.end.p0(i64 416, ptr nonnull %4) #72
  br label %58

32:                                               ; preds = %3
  call void @llvm.lifetime.start.p0(i64 416, ptr nonnull %5) #72
  %33 = getelementptr inbounds nuw i8, ptr %0, i64 656
  %34 = load ptr, ptr %33, align 8
  %35 = getelementptr inbounds nuw i8, ptr %0, i64 928
  %36 = load ptr, ptr %35, align 8
  %37 = call ptr %34(ptr noundef %36, ptr noundef null, ptr noundef nonnull @ma_device_source_info_callback, ptr noundef nonnull %5) #72
  %38 = icmp eq ptr %37, null
  br i1 %38, label %.thread, label %39

39:                                               ; preds = %32
  %40 = getelementptr inbounds nuw i8, ptr %0, i64 920
  %41 = load ptr, ptr %40, align 8
  %42 = getelementptr inbounds nuw i8, ptr %0, i64 464
  %43 = getelementptr inbounds nuw i8, ptr %0, i64 672
  br label %44

44:                                               ; preds = %47, %39
  %45 = load ptr, ptr %43, align 8
  %46 = call i32 %45(ptr noundef nonnull %37) #72
  %.not.i.i.i24 = icmp eq i32 %46, 0
  br i1 %.not.i.i.i24, label %47, label %53

47:                                               ; preds = %44
  %48 = load ptr, ptr %42, align 8
  %49 = call i32 %48(ptr noundef %41, i32 noundef 1, ptr noundef null) #72
  %50 = icmp slt i32 %49, 0
  br i1 %50, label %ma_context_get_source_info__pulse.exit, label %44

ma_context_get_source_info__pulse.exit:           ; preds = %47
  %51 = getelementptr inbounds nuw i8, ptr %0, i64 664
  %52 = load ptr, ptr %51, align 8
  call void %52(ptr noundef nonnull %37) #72
  br label %.thread

.thread:                                          ; preds = %ma_context_get_source_info__pulse.exit, %32
  call void @llvm.lifetime.end.p0(i64 416, ptr nonnull %5) #72
  br label %58

53:                                               ; preds = %44
  %54 = getelementptr inbounds nuw i8, ptr %0, i64 664
  %55 = load ptr, ptr %54, align 8
  call void %55(ptr noundef nonnull %37) #72
  %56 = getelementptr inbounds nuw i8, ptr %5, i64 8
  %57 = load i32, ptr %56, align 8
  store i32 %57, ptr %2, align 4
  call void @llvm.lifetime.end.p0(i64 416, ptr nonnull %5) #72
  br label %58

.critedge:                                        ; preds = %6, %ma_context_get_sink_info__pulse.exit
  call void @llvm.lifetime.end.p0(i64 416, ptr nonnull %4) #72
  br label %58

58:                                               ; preds = %27, %3, %53, %.thread, %.critedge
  %.2 = phi i32 [ -1, %.critedge ], [ -1, %.thread ], [ 0, %53 ], [ 0, %27 ], [ 0, %3 ]
  ret i32 %.2
}